#include <math.h>
#include <stdio.h>
#include <stdlib.h>
#include <string.h>

int check(int b[],int len,int x)
{
	int i,flag=1;
	for(i=0;i<len;i++)
	{
		if(b[i]==x)
		{
			flag=0;
			return 0;
			break;
		}
	}
	if(flag)
		return 1;
}
int main()
{
	int j,i,n;
	int a[20100],b[20100];
	scanf("%d",&n);
	for(i=0;i<n;i++)
		scanf("%d",&a[i]);
	printf("%d",a[0]);
	b[0]=a[0];
	j=1;
	for(i=1;i<n;i++)
	{
		if(check(b,j,a[i]))
		{
			printf(" %d",a[i]);
			b[j]=a[i];
			j++;
		}
	}

	return 0;
}